 gvplugin_core

 Timestamp is 48752c6f (Wed Jul 09 17:23:59 2008)

 Preferred load address is 63980000

 Start         Length     Name                   Class
 0001:00000000 00007c94H .text                   CODE
 0002:00000000 0000013cH .idata$5                DATA
 0002:0000013c 00000004H .CRT$XCA                DATA
 0002:00000140 00000004H .CRT$XCZ                DATA
 0002:00000144 00000004H .CRT$XIA                DATA
 0002:00000148 00000004H .CRT$XIAA               DATA
 0002:0000014c 00000004H .CRT$XIC                DATA
 0002:00000150 00000004H .CRT$XIZ                DATA
 0002:00000158 000000b0H .rdata                  DATA
 0002:00000210 00000004H .rdata$sxdata           DATA
 0002:00000214 00000004H .rtc$IAA                DATA
 0002:00000218 00000004H .rtc$IZZ                DATA
 0002:0000021c 00000004H .rtc$TAA                DATA
 0002:00000220 00000004H .rtc$TZZ                DATA
 0002:00000228 00000084H .xdata$x                DATA
 0002:000002ac 00000050H .idata$2                DATA
 0002:000002fc 00000014H .idata$3                DATA
 0002:00000310 0000013cH .idata$4                DATA
 0002:0000044c 000004feH .idata$6                DATA
 0002:00000950 0000048aH .edata                  DATA
 0003:00000000 00004520H .data                   DATA
 0003:00004520 00000b1cH .bss                    DATA

  Address         Publics by Value              Rva+Base       Lib:Object

 0000:00000000       __except_list              00000000     <absolute>
 0000:00000001       ___safe_se_handler_count   00000001     <absolute>
 0000:00009876       __ldused                   00009876     <absolute>
 0000:00009876       __fltused                  00009876     <absolute>
 0000:00000000       ___ImageBase               63980000     <linker-defined>
 0001:00000990       _core_loadimage_dot        63981990 f   libgvplugin_core:gvloadimage_core.o
 0001:00007170       _core_loadimage_xdot       63988170 f   libgvplugin_core:gvrender_core_dot.o
 0001:000072bc       _gvdevice_printf           639882bc f   gvc:gvc.dll
 0001:000072c2       _gvdevice_fputs            639882c2 f   gvc:gvc.dll
 0001:000072c8       _epsf_emit_body            639882c8 f   gvc:gvc.dll
 0001:000072ce       _gvusershape_file_release  639882ce f   gvc:gvc.dll
 0001:000072d4       _gvusershape_file_access   639882d4 f   gvc:gvc.dll
 0001:000072da       _xml_string                639882da f   gvc:gvc.dll
 0001:000072e0       _strcasecmp                639882e0 f   gvc:gvc.dll
 0001:000072e6       _gvdevice_printpointf      639882e6 f   gvc:gvc.dll
 0001:000072ec       _gvdevice_printnum         639882ec f   gvc:gvc.dll
 0001:000072f2       _gvdevice_printpointflist  639882f2 f   gvc:gvc.dll
 0001:000072f8       _xml_url_string            639882f8 f   gvc:gvc.dll
 0001:000072fe       _cat_libfile               639882fe f   gvc:gvc.dll
 0001:00007304       _epsf_define               63988304 f   gvc:gvc.dll
 0001:0000730a       _cat_preamble              6398830a f   gvc:gvc.dll
 0001:00007310       _ps_string                 63988310 f   gvc:gvc.dll
 0001:00007316       _Bezier                    63988316 f   gvc:gvc.dll
 0001:0000731c       _attach_attrs_and_arrows   6398831c f   gvc:gvc.dll
 0001:00007322       _undoClusterEdges          63988322 f   gvc:gvc.dll
 0001:00007328       _attach_attrs              63988328 f   gvc:gvc.dll
 0001:0000732e       _safe_dcl                  6398832e f   gvc:gvc.dll
 0001:00007334       _write_plain               63988334 f   gvc:gvc.dll
 0001:0000733a       _output_point              6398833a f   gvc:gvc.dll
 0001:00007340       _agget                     63988340 f   graph:graph.dll
 0001:00007346       _agxset                    63988346 f   graph:graph.dll
 0001:0000734c       _agxbmore                  6398834c f   graph:graph.dll
 0001:00007352       _agxbinit                  63988352 f   graph:graph.dll
 0001:00007358       _agedgeattr                63988358 f   graph:graph.dll
 0001:0000735e       _agnodeattr                6398835e f   graph:graph.dll
 0001:00007364       _agraphattr                63988364 f   graph:graph.dll
 0001:0000736a       _agwrite                   6398836a f   graph:graph.dll
 0001:00007370       _agxbfree                  63988370 f   graph:graph.dll
 0001:00007376       _agsafeset                 63988376 f   graph:graph.dll
 0001:0000737c       _agxbput                   6398837c f   graph:graph.dll
 0001:000073cf       __CRT_INIT@12              639883cf f   msvcrt:crtdll.obj
 0001:00007684       __DllMainCRTStartup@12     63988684 f   msvcrt:crtdll.obj
 0001:000076b0       __ftol2_sse                639886b0 f   msvcrt:ftol2.obj
 0001:000076b9       __ftol2_pentium4           639886b9 f   msvcrt:ftol2.obj
 0001:000076cc       __ftol2_sse_excpt          639886cc f   msvcrt:ftol2.obj
 0001:000076e6       __ftol2                    639886e6 f   msvcrt:ftol2.obj
 0001:0000775c       _strcmp                    6398875c f   msvcrt:MSVCR80.dll
 0001:00007762       @__security_check_cookie@4 63988762 f   msvcrt:secchk.obj
 0001:00007772       _strlen                    63988772 f   msvcrt:MSVCR80.dll
 0001:00007778       ___clean_type_info_names   63988778 f   msvcrt:tncleanup.obj
 0001:00007784       __onexit                   63988784 f   msvcrt:atonexit.obj
 0001:00007823       _atexit                    63988823 f   msvcrt:atonexit.obj
 0001:00007835       __RTC_Initialize           63988835 f   msvcrt:initsect.obj
 0001:00007859       __RTC_Terminate            63988859 f   msvcrt:initsect.obj
 0001:00007880       __ValidateImageBase        63988880 f   msvcrt:pesect.obj
 0001:000078b0       __FindPESection            639888b0 f   msvcrt:pesect.obj
 0001:000078f2       __IsNonwritableInCurrentImage 639888f2 f   msvcrt:pesect.obj
 0001:0000795e       __initterm                 6398895e f   msvcrt:MSVCR80.dll
 0001:00007964       __initterm_e               63988964 f   msvcrt:MSVCR80.dll
 0001:0000796a       __amsg_exit                6398896a f   msvcrt:MSVCR80.dll
 0001:00007970       ___CppXcptFilter           63988970 f   msvcrt:MSVCR80.dll
 0001:00007976       _DllMain@12                63988976 f   msvcrt:dllmain.obj
 0001:00007998       __SEH_prolog4              63988998 f   msvcrt:sehprolg4.obj
 0001:000079dd       __SEH_epilog4              639889dd f   msvcrt:sehprolg4.obj
 0001:000079f1       __except_handler4          639889f1 f   msvcrt:chandler4gs.obj
 0001:00007a14       ___security_init_cookie    63988a14 f   msvcrt:gs_support.obj
 0001:00007af8       __get_sse2_info            63988af8 f   msvcrt:cpu_disp.obj
 0001:00007b58       ___sse2_available_init     63988b58 f   msvcrt:cpu_disp.obj
 0001:00007b65       ___report_gsfailure        63988b65 f   msvcrt:gs_report.obj
 0001:00007c6a       ___clean_type_info_names_internal 63988c6a f   msvcrt:MSVCR80.dll
 0001:00007c70       __unlock                   63988c70 f   msvcrt:MSVCR80.dll
 0001:00007c76       ___dllonexit               63988c76 f   msvcrt:MSVCR80.dll
 0001:00007c7c       __lock                     63988c7c f   msvcrt:MSVCR80.dll
 0001:00007c82       __except_handler4_common   63988c82 f   msvcrt:MSVCR80.dll
 0001:00007c88       __crt_debugger_hook        63988c88 f   msvcrt:MSVCR80.dll
 0001:00007c8e       __read                     63988c8e f   msvcrt:MSVCR80.dll
 0001:00007c8e       _read                      63988c8e f   msvcrt:MSVCR80.dll
 0002:00000000       __imp__GetSystemTimeAsFileTime@4 63989000     KERNEL32:KERNEL32.dll
 0002:00000004       __imp__Sleep@4             63989004     KERNEL32:KERNEL32.dll
 0002:00000008       __imp__IsDebuggerPresent@0 63989008     KERNEL32:KERNEL32.dll
 0002:0000000c       __imp__SetUnhandledExceptionFilter@4 6398900c     KERNEL32:KERNEL32.dll
 0002:00000010       __imp__UnhandledExceptionFilter@4 63989010     KERNEL32:KERNEL32.dll
 0002:00000014       __imp__GetCurrentProcess@0 63989014     KERNEL32:KERNEL32.dll
 0002:00000018       __imp__TerminateProcess@8  63989018     KERNEL32:KERNEL32.dll
 0002:0000001c       __imp__InterlockedExchange@8 6398901c     KERNEL32:KERNEL32.dll
 0002:00000020       __imp__GetCurrentProcessId@0 63989020     KERNEL32:KERNEL32.dll
 0002:00000024       __imp__GetCurrentThreadId@0 63989024     KERNEL32:KERNEL32.dll
 0002:00000028       __imp__GetTickCount@0      63989028     KERNEL32:KERNEL32.dll
 0002:0000002c       __imp__QueryPerformanceCounter@4 6398902c     KERNEL32:KERNEL32.dll
 0002:00000030       __imp__DisableThreadLibraryCalls@4 63989030     KERNEL32:KERNEL32.dll
 0002:00000034       __imp__InterlockedCompareExchange@12 63989034     KERNEL32:KERNEL32.dll
 0002:00000038       \177KERNEL32_NULL_THUNK_DATA 63989038     KERNEL32:KERNEL32.dll
 0002:0000003c       __imp__free                6398903c     msvcrt:MSVCR80.dll
 0002:00000040       __imp___read               63989040     msvcrt:MSVCR80.dll
 0002:00000044       __imp___crt_debugger_hook  63989044     msvcrt:MSVCR80.dll
 0002:00000048       __imp___except_handler4_common 63989048     msvcrt:MSVCR80.dll
 0002:0000004c       __imp___onexit             6398904c     msvcrt:MSVCR80.dll
 0002:00000050       __imp___lock               63989050     msvcrt:MSVCR80.dll
 0002:00000054       __imp____dllonexit         63989054     msvcrt:MSVCR80.dll
 0002:00000058       __imp___unlock             63989058     msvcrt:MSVCR80.dll
 0002:0000005c       __imp____clean_type_info_names_internal 6398905c     msvcrt:MSVCR80.dll
 0002:00000060       __imp____CppXcptFilter     63989060     msvcrt:MSVCR80.dll
 0002:00000064       __imp___adjust_fdiv        63989064     msvcrt:MSVCR80.dll
 0002:00000068       __imp___amsg_exit          63989068     msvcrt:MSVCR80.dll
 0002:0000006c       __imp___initterm_e         6398906c     msvcrt:MSVCR80.dll
 0002:00000070       __imp___initterm           63989070     msvcrt:MSVCR80.dll
 0002:00000074       __imp___decode_pointer     63989074     msvcrt:MSVCR80.dll
 0002:00000078       __imp___encoded_null       63989078     msvcrt:MSVCR80.dll
 0002:0000007c       __imp___malloc_crt         6398907c     msvcrt:MSVCR80.dll
 0002:00000080       __imp___encode_pointer     63989080     msvcrt:MSVCR80.dll
 0002:00000084       __imp__strlen              63989084     msvcrt:MSVCR80.dll
 0002:00000088       __imp___wassert            63989088     msvcrt:MSVCR80.dll
 0002:0000008c       __imp__fprintf             6398908c     msvcrt:MSVCR80.dll
 0002:00000090       __imp__malloc              63989090     msvcrt:MSVCR80.dll
 0002:00000094       __imp___fstat64i32         63989094     msvcrt:MSVCR80.dll
 0002:00000098       __imp___fileno             63989098     msvcrt:MSVCR80.dll
 0002:00000098       __imp__fileno              63989098     msvcrt:MSVCR80.dll
 0002:0000009c       __imp___vsnprintf          6398909c     msvcrt:MSVCR80.dll
 0002:000000a0       __imp__strcmp              639890a0     msvcrt:MSVCR80.dll
 0002:000000a4       __imp__realloc             639890a4     msvcrt:MSVCR80.dll
 0002:000000a8       __imp__sprintf             639890a8     msvcrt:MSVCR80.dll
 0002:000000ac       \177MSVCR80_NULL_THUNK_DATA 639890ac     msvcrt:MSVCR80.dll
 0002:000000b0       __imp__agxbput             639890b0     graph:graph.dll
 0002:000000b4       __imp__agsafeset           639890b4     graph:graph.dll
 0002:000000b8       __imp__agxbfree            639890b8     graph:graph.dll
 0002:000000bc       __imp__agwrite             639890bc     graph:graph.dll
 0002:000000c0       __imp__agraphattr          639890c0     graph:graph.dll
 0002:000000c4       __imp__agnodeattr          639890c4     graph:graph.dll
 0002:000000c8       __imp__agedgeattr          639890c8     graph:graph.dll
 0002:000000cc       __imp__agxbinit            639890cc     graph:graph.dll
 0002:000000d0       __imp__agxbmore            639890d0     graph:graph.dll
 0002:000000d4       __imp__agxset              639890d4     graph:graph.dll
 0002:000000d8       __imp__agget               639890d8     graph:graph.dll
 0002:000000dc       \177graph_NULL_THUNK_DATA  639890dc     graph:graph.dll
 0002:000000e0       __imp__output_point        639890e0     gvc:gvc.dll
 0002:000000e4       __imp__write_plain         639890e4     gvc:gvc.dll
 0002:000000e8       __imp__safe_dcl            639890e8     gvc:gvc.dll
 0002:000000ec       __imp__attach_attrs        639890ec     gvc:gvc.dll
 0002:000000f0       __imp__undoClusterEdges    639890f0     gvc:gvc.dll
 0002:000000f4       __imp__attach_attrs_and_arrows 639890f4     gvc:gvc.dll
 0002:000000f8       __imp__Bezier              639890f8     gvc:gvc.dll
 0002:000000fc       __imp__ps_string           639890fc     gvc:gvc.dll
 0002:00000100       __imp__cat_preamble        63989100     gvc:gvc.dll
 0002:00000104       __imp__epsf_define         63989104     gvc:gvc.dll
 0002:00000108       __imp__cat_libfile         63989108     gvc:gvc.dll
 0002:0000010c       __imp__xml_url_string      6398910c     gvc:gvc.dll
 0002:00000110       __imp__gvdevice_printpointflist 63989110     gvc:gvc.dll
 0002:00000114       __imp__gvdevice_printnum   63989114     gvc:gvc.dll
 0002:00000118       __imp__gvdevice_printpointf 63989118     gvc:gvc.dll
 0002:0000011c       __imp__strcasecmp          6398911c     gvc:gvc.dll
 0002:00000120       __imp__xml_string          63989120     gvc:gvc.dll
 0002:00000124       __imp__gvusershape_file_access 63989124     gvc:gvc.dll
 0002:00000128       __imp__gvusershape_file_release 63989128     gvc:gvc.dll
 0002:0000012c       __imp__epsf_emit_body      6398912c     gvc:gvc.dll
 0002:00000130       __imp__gvdevice_fputs      63989130     gvc:gvc.dll
 0002:00000134       __imp__gvdevice_printf     63989134     gvc:gvc.dll
 0002:00000138       \177gvc_NULL_THUNK_DATA    63989138     gvc:gvc.dll
 0002:0000013c       ___xc_a                    6398913c     msvcrt:cinitexe.obj
 0002:00000140       ___xc_z                    63989140     msvcrt:cinitexe.obj
 0002:00000144       ___xi_a                    63989144     msvcrt:cinitexe.obj
 0002:00000150       ___xi_z                    63989150     msvcrt:cinitexe.obj
 0002:00000158       __real@3fe0000000000000    63989158     libgvplugin_core:gvloadimage_core.o
 0002:00000160       __real@0000000000000000    63989160     libgvplugin_core:gvloadimage_core.o
 0002:00000168       __real@4010000000000000    63989168     libgvplugin_core:gvrender_core_vml.o
 0002:00000170       __real@3fe8000000000000    63989170     libgvplugin_core:gvrender_core_vml.o
 0002:00000178       __real@3fe9eb851eb851ec    63989178     libgvplugin_core:gvrender_core_vml.o
 0002:00000180       __real@402c000000000000    63989180     libgvplugin_core:gvrender_core_vml.o
 0002:00000188       __real@4000000000000000    63989188     libgvplugin_core:gvrender_core_vml.o
 0002:00000190       __real@3ff0000000000000    63989190     libgvplugin_core:gvrender_core_vml.o
 0002:00000198       __real@3ff921fb54442d18    63989198     libgvplugin_core:gvrender_core_fig.o
 0002:000001a0       __real@4024000000000000    639891a0     libgvplugin_core:gvrender_core_fig.o
 0002:000001a8       __real@4018000000000000    639891a8     libgvplugin_core:gvrender_core_fig.o
 0002:000001b0       __pDefaultRawDllMain       639891b0     msvcrt:crtdll.obj
 0002:000001b0       __pRawDllMain              639891b0     msvcrt:crtdll.obj
 0002:000001c0       __load_config_used         639891c0     msvcrt:loadcfg.obj
 0002:00000210       ___safe_se_handler_table   63989210     <linker-defined>
 0002:00000214       ___rtc_iaa                 63989214     msvcrt:initsect.obj
 0002:00000218       ___rtc_izz                 63989218     msvcrt:initsect.obj
 0002:0000021c       ___rtc_taa                 6398921c     msvcrt:initsect.obj
 0002:00000220       ___rtc_tzz                 63989220     msvcrt:initsect.obj
 0002:000002ac       __IMPORT_DESCRIPTOR_gvc    639892ac     gvc:gvc.dll
 0002:000002c0       __IMPORT_DESCRIPTOR_graph  639892c0     graph:graph.dll
 0002:000002d4       __IMPORT_DESCRIPTOR_MSVCR80 639892d4     msvcrt:MSVCR80.dll
 0002:000002e8       __IMPORT_DESCRIPTOR_KERNEL32 639892e8     KERNEL32:KERNEL32.dll
 0002:000002fc       __NULL_IMPORT_DESCRIPTOR   639892fc     gvc:gvc.dll
 0003:000007c8       _gvloadimage_core_types    6398a7c8     libgvplugin_core:gvloadimage_core.o
 0003:00001a80       _vml_engine                6398ba80     libgvplugin_core:gvrender_core_vml.o
 0003:00001af0       _render_features_vml       6398baf0     libgvplugin_core:gvrender_core_vml.o
 0003:00001b10       _device_features_vml       6398bb10     libgvplugin_core:gvrender_core_vml.o
 0003:00001b48       _device_features_vmlz      6398bb48     libgvplugin_core:gvrender_core_vml.o
 0003:00001b80       _gvrender_vml_types        6398bb80     libgvplugin_core:gvrender_core_vml.o
 0003:00001bbc       _gvdevice_vml_types        6398bbbc     libgvplugin_core:gvrender_core_vml.o
 0003:00001ef8       _tkgen_engine              6398bef8     libgvplugin_core:gvrender_core_tk.o
 0003:00001f68       _render_features_tk        6398bf68     libgvplugin_core:gvrender_core_tk.o
 0003:00001f88       _device_features_tk        6398bf88     libgvplugin_core:gvrender_core_tk.o
 0003:00001fc4       _gvrender_tk_types         6398bfc4     libgvplugin_core:gvrender_core_tk.o
 0003:00001ff4       _gvdevice_tk_types         6398bff4     libgvplugin_core:gvrender_core_tk.o
 0003:00002fb8       _svg_engine                6398cfb8     libgvplugin_core:gvrender_core_svg.o
 0003:00003028       _render_features_svg       6398d028     libgvplugin_core:gvrender_core_svg.o
 0003:00003048       _device_features_svg       6398d048     libgvplugin_core:gvrender_core_svg.o
 0003:00003080       _device_features_svgz      6398d080     libgvplugin_core:gvrender_core_svg.o
 0003:000030b8       _gvrender_svg_types        6398d0b8     libgvplugin_core:gvrender_core_svg.o
 0003:000030e8       _gvdevice_svg_types        6398d0e8     libgvplugin_core:gvrender_core_svg.o
 0003:0000382c       _gvrender_ps_types         6398d82c     libgvplugin_core:gvrender_core_ps.o
 0003:00003870       _gvdevice_ps_types         6398d870     libgvplugin_core:gvrender_core_ps.o
 0003:00003bb8       _gvrender_map_types        6398dbb8     libgvplugin_core:gvrender_core_map.o
 0003:00003c30       _gvdevice_map_types        6398dc30     libgvplugin_core:gvrender_core_map.o
 0003:00003f78       _fig_engine                6398df78     libgvplugin_core:gvrender_core_fig.o
 0003:00004048       _render_features_fig       6398e048     libgvplugin_core:gvrender_core_fig.o
 0003:00004068       _device_features_fig       6398e068     libgvplugin_core:gvrender_core_fig.o
 0003:000040a0       _gvrender_fig_types        6398e0a0     libgvplugin_core:gvrender_core_fig.o
 0003:000040d0       _gvdevice_fig_types        6398e0d0     libgvplugin_core:gvrender_core_fig.o
 0003:000041e8       _dot_engine                6398e1e8     libgvplugin_core:gvrender_core_dot.o
 0003:00004258       _xdot_engine               6398e258     libgvplugin_core:gvrender_core_dot.o
 0003:000042c8       _render_features_dot       6398e2c8     libgvplugin_core:gvrender_core_dot.o
 0003:000042e8       _render_features_xdot      6398e2e8     libgvplugin_core:gvrender_core_dot.o
 0003:00004308       _device_features_canon     6398e308     libgvplugin_core:gvrender_core_dot.o
 0003:00004340       _device_features_dot       6398e340     libgvplugin_core:gvrender_core_dot.o
 0003:00004384       _gvrender_dot_types        6398e384     libgvplugin_core:gvrender_core_dot.o
 0003:00004400       _gvdevice_dot_types        6398e400     libgvplugin_core:gvrender_core_dot.o
 0003:00004500       _gvplugin_core_LTX_library 6398e500     libgvplugin_core:gvplugin_core.o
 0003:00004510       ___security_cookie         6398e510     msvcrt:gs_cookie.obj
 0003:00004514       ___security_cookie_complement 6398e514     msvcrt:gs_cookie.obj
 0003:00004518       ___native_dllmain_reason   6398e518     msvcrt:natstart.obj
 0003:0000451c       ___native_vcclrit_reason   6398e51c     msvcrt:natstart.obj
 0003:00004bec       ?__type_info_root_node@@3U__type_info_node@@A 6398ebec     msvcrt:tncleanup.obj
 0003:00004f20       _graphcoords               6398ef20     <common>
 0003:00005020       ___sse2_available          6398f020     <common>
 0003:00005024       __adjust_fdiv              6398f024     <common>
 0003:00005028       ___native_startup_state    6398f028     <common>
 0003:0000502c       ___native_startup_lock     6398f02c     <common>
 0003:00005030       ___onexitend               6398f030     <common>
 0003:00005034       ___onexitbegin             6398f034     <common>
 0003:00005038       ___dyn_tls_init_callback   6398f038     <common>

 entry point at        0001:00007684

 Static symbols

 0001:00000000       _core_loadimage_svg        63981000 f   libgvplugin_core:gvloadimage_core.o
 0001:00000140       _core_loadimage_fig        63981140 f   libgvplugin_core:gvloadimage_core.o
 0001:00000390       _core_loadimage_vrml       63981390 f   libgvplugin_core:gvloadimage_core.o
 0001:00000510       _core_loadimage_ps         63981510 f   libgvplugin_core:gvloadimage_core.o
 0001:00000720       _fstat                     63981720 f   libgvplugin_core:gvloadimage_core.o
 0001:00000740       _ps_freeimage              63981740 f   libgvplugin_core:gvloadimage_core.o
 0001:00000760       _core_loadimage_pslib      63981760 f   libgvplugin_core:gvloadimage_core.o
 0001:000009a0       _vml_comment               639819a0 f   libgvplugin_core:gvrender_core_vml.o
 0001:000009e0       _vml_begin_job             639819e0 f   libgvplugin_core:gvrender_core_vml.o
 0001:00000b30       _vml_begin_graph           63981b30 f   libgvplugin_core:gvrender_core_vml.o
 0001:00000cc0       _snprintf                  63981cc0 f   libgvplugin_core:gvrender_core_vml.o
 0001:00000d00       _vml_end_graph             63981d00 f   libgvplugin_core:gvrender_core_vml.o
 0001:00000d20       _vml_begin_anchor          63981d20 f   libgvplugin_core:gvrender_core_vml.o
 0001:00000de0       _vml_end_anchor            63981de0 f   libgvplugin_core:gvrender_core_vml.o
 0001:00000e00       _vml_textpara              63981e00 f   libgvplugin_core:gvrender_core_vml.o
 0001:00001070       _vml_ellipse               63982070 f   libgvplugin_core:gvrender_core_vml.o
 0001:00001190       _vml_grstroke              63982190 f   libgvplugin_core:gvrender_core_vml.o
 0001:00001290       _vml_print_color           63982290 f   libgvplugin_core:gvrender_core_vml.o
 0001:00001320       _vml_grstrokeattr          63982320 f   libgvplugin_core:gvrender_core_vml.o
 0001:000013e0       _vml_grfill                639823e0 f   libgvplugin_core:gvrender_core_vml.o
 0001:00001450       _vml_bezier                63982450 f   libgvplugin_core:gvrender_core_vml.o
 0001:000014f0       _vml_bzptarray             639824f0 f   libgvplugin_core:gvrender_core_vml.o
 0001:00001570       _vml_polygon               63982570 f   libgvplugin_core:gvrender_core_vml.o
 0001:000016c0       _vml_polyline              639826c0 f   libgvplugin_core:gvrender_core_vml.o
 0001:000017e0       _tkgen_comment             639827e0 f   libgvplugin_core:gvrender_core_tk.o
 0001:00001820       _tkgen_string              63982820 f   libgvplugin_core:gvrender_core_tk.o
 0001:00001830       _tkgen_begin_job           63982830 f   libgvplugin_core:gvrender_core_tk.o
 0001:00001910       _tkgen_begin_graph         63982910 f   libgvplugin_core:gvrender_core_tk.o
 0001:000019a0       _tkgen_textpara            639829a0 f   libgvplugin_core:gvrender_core_tk.o
 0001:00001b20       _tkgen_print_color         63982b20 f   libgvplugin_core:gvrender_core_tk.o
 0001:00001bb0       _tkgen_print_tags          63982bb0 f   libgvplugin_core:gvrender_core_tk.o
 0001:00001cf0       _tkgen_ellipse             63982cf0 f   libgvplugin_core:gvrender_core_tk.o
 0001:00001e70       _tkgen_bezier              63982e70 f   libgvplugin_core:gvrender_core_tk.o
 0001:00001f90       _tkgen_polygon             63982f90 f   libgvplugin_core:gvrender_core_tk.o
 0001:000020d0       _tkgen_polyline            639830d0 f   libgvplugin_core:gvrender_core_tk.o
 0001:000021b0       _svg_comment               639831b0 f   libgvplugin_core:gvrender_core_svg.o
 0001:000021f0       _svg_begin_job             639831f0 f   libgvplugin_core:gvrender_core_svg.o
 0001:000023a0       _isAscii                   639833a0 f   libgvplugin_core:gvrender_core_svg.o
 0001:000023e0       _svg_begin_graph           639833e0 f   libgvplugin_core:gvrender_core_svg.o
 0001:00002510       _svg_end_graph             63983510 f   libgvplugin_core:gvrender_core_svg.o
 0001:00002530       _svg_begin_layer           63983530 f   libgvplugin_core:gvrender_core_svg.o
 0001:00002570       _svg_end_layer             63983570 f   libgvplugin_core:gvrender_core_svg.o
 0001:00002590       _svg_begin_page            63983590 f   libgvplugin_core:gvrender_core_svg.o
 0001:00002670       _svg_end_page              63983670 f   libgvplugin_core:gvrender_core_svg.o
 0001:00002690       _svg_begin_cluster         63983690 f   libgvplugin_core:gvrender_core_svg.o
 0001:00002700       _svg_end_cluster           63983700 f   libgvplugin_core:gvrender_core_svg.o
 0001:00002720       _svg_begin_node            63983720 f   libgvplugin_core:gvrender_core_svg.o
 0001:00002790       _svg_end_node              63983790 f   libgvplugin_core:gvrender_core_svg.o
 0001:000027b0       _svg_begin_edge            639837b0 f   libgvplugin_core:gvrender_core_svg.o
 0001:00002880       _svg_end_edge              63983880 f   libgvplugin_core:gvrender_core_svg.o
 0001:000028a0       _svg_begin_anchor          639838a0 f   libgvplugin_core:gvrender_core_svg.o
 0001:00002960       _svg_end_anchor            63983960 f   libgvplugin_core:gvrender_core_svg.o
 0001:00002980       _svg_textpara              63983980 f   libgvplugin_core:gvrender_core_svg.o
 0001:00002c50       _svg_ellipse               63983c50 f   libgvplugin_core:gvrender_core_svg.o
 0001:00002cf0       _svg_grstyle               63983cf0 f   libgvplugin_core:gvrender_core_svg.o
 0001:00002e00       _svg_print_color           63983e00 f   libgvplugin_core:gvrender_core_svg.o
 0001:00002e90       _svg_bezier                63983e90 f   libgvplugin_core:gvrender_core_svg.o
 0001:00002ef0       _svg_bzptarray             63983ef0 f   libgvplugin_core:gvrender_core_svg.o
 0001:00002f70       _svg_polygon               63983f70 f   libgvplugin_core:gvrender_core_svg.o
 0001:00003040       _svg_polyline              63984040 f   libgvplugin_core:gvrender_core_svg.o
 0001:000030e0       _psgen_begin_job           639840e0 f   libgvplugin_core:gvrender_core_ps.o
 0001:00003150       _psgen_end_job             63984150 f   libgvplugin_core:gvrender_core_ps.o
 0001:00003200       _psgen_begin_graph         63984200 f   libgvplugin_core:gvrender_core_ps.o
 0001:000033b0       _psgen_begin_layer         639843b0 f   libgvplugin_core:gvrender_core_ps.o
 0001:000033d0       _psgen_begin_page          639843d0 f   libgvplugin_core:gvrender_core_ps.o
 0001:000035c0       _psgen_end_page            639845c0 f   libgvplugin_core:gvrender_core_ps.o
 0001:00003640       _psgen_begin_cluster       63984640 f   libgvplugin_core:gvrender_core_ps.o
 0001:00003680       _psgen_end_cluster         63984680 f   libgvplugin_core:gvrender_core_ps.o
 0001:000036a0       _psgen_begin_node          639846a0 f   libgvplugin_core:gvrender_core_ps.o
 0001:000036c0       _psgen_end_node            639846c0 f   libgvplugin_core:gvrender_core_ps.o
 0001:000036e0       _psgen_begin_edge          639846e0 f   libgvplugin_core:gvrender_core_ps.o
 0001:00003700       _psgen_end_edge            63984700 f   libgvplugin_core:gvrender_core_ps.o
 0001:00003720       _psgen_begin_anchor        63984720 f   libgvplugin_core:gvrender_core_ps.o
 0001:000037b0       _psgen_textpara            639847b0 f   libgvplugin_core:gvrender_core_ps.o
 0001:000038e0       _ps_set_color              639848e0 f   libgvplugin_core:gvrender_core_ps.o
 0001:00003980       _psgen_ellipse             63984980 f   libgvplugin_core:gvrender_core_ps.o
 0001:00003a80       _ps_set_pen_style          63984a80 f   libgvplugin_core:gvrender_core_ps.o
 0001:00003bb0       _psgen_bezier              63984bb0 f   libgvplugin_core:gvrender_core_ps.o
 0001:00003d80       _psgen_polygon             63984d80 f   libgvplugin_core:gvrender_core_ps.o
 0001:00003f80       _psgen_polyline            63984f80 f   libgvplugin_core:gvrender_core_ps.o
 0001:00004080       _psgen_comment             63985080 f   libgvplugin_core:gvrender_core_ps.o
 0001:000040c0       _psgen_library_shape       639850c0 f   libgvplugin_core:gvrender_core_ps.o
 0001:00004230       _map_begin_page            63985230 f   libgvplugin_core:gvrender_core_map.o
 0001:000043e0       _map_end_page              639853e0 f   libgvplugin_core:gvrender_core_map.o
 0001:000044b0       _map_output_shape          639854b0 f   libgvplugin_core:gvrender_core_map.o
 0001:00004a60       _map_begin_anchor          63985a60 f   libgvplugin_core:gvrender_core_map.o
 0001:00004ab0       _fig_resolve_color         63985ab0 f   libgvplugin_core:gvrender_core_fig.o
 0001:00004bd0       _figColorResolve           63985bd0 f   libgvplugin_core:gvrender_core_fig.o
 0001:00004ce0       _fig_comment               63985ce0 f   libgvplugin_core:gvrender_core_fig.o
 0001:00004d00       _fig_begin_graph           63985d00 f   libgvplugin_core:gvrender_core_fig.o
 0001:00004e50       _fig_end_graph             63985e50 f   libgvplugin_core:gvrender_core_fig.o
 0001:00004e70       _fig_begin_page            63985e70 f   libgvplugin_core:gvrender_core_fig.o
 0001:00004e80       _fig_begin_node            63985e80 f   libgvplugin_core:gvrender_core_fig.o
 0001:00004e90       _fig_end_node              63985e90 f   libgvplugin_core:gvrender_core_fig.o
 0001:00004ea0       _fig_begin_edge            63985ea0 f   libgvplugin_core:gvrender_core_fig.o
 0001:00004eb0       _fig_end_edge              63985eb0 f   libgvplugin_core:gvrender_core_fig.o
 0001:00004ec0       _fig_textpara              63985ec0 f   libgvplugin_core:gvrender_core_fig.o
 0001:00005060       _fig_string                63986060 f   libgvplugin_core:gvrender_core_fig.o
 0001:000051a0       _fig_ellipse               639861a0 f   libgvplugin_core:gvrender_core_fig.o
 0001:00005440       _fig_line_style            63986440 f   libgvplugin_core:gvrender_core_fig.o
 0001:000054a0       _fig_bezier                639864a0 f   libgvplugin_core:gvrender_core_fig.o
 0001:00005920       _fig_polygon               63986920 f   libgvplugin_core:gvrender_core_fig.o
 0001:00005a30       _figptarray                63986a30 f   libgvplugin_core:gvrender_core_fig.o
 0001:00005bd0       _fig_polyline              63986bd0 f   libgvplugin_core:gvrender_core_fig.o
 0001:00005cd0       _xdot_end_node             63986cd0 f   libgvplugin_core:gvrender_core_dot.o
 0001:00005e20       _xdot_end_edge             63986e20 f   libgvplugin_core:gvrender_core_dot.o
 0001:000061c0       _xdot_end_cluster          639871c0 f   libgvplugin_core:gvrender_core_dot.o
 0001:000062f0       _dot_begin_graph           639872f0 f   libgvplugin_core:gvrender_core_dot.o
 0001:00006380       _xdot_begin_graph          63987380 f   libgvplugin_core:gvrender_core_dot.o
 0001:00006650       _dot_end_graph             63987650 f   libgvplugin_core:gvrender_core_dot.o
 0001:00006730       _xdot_end_graph            63987730 f   libgvplugin_core:gvrender_core_dot.o
 0001:000068f0       _xdot_textpara             639878f0 f   libgvplugin_core:gvrender_core_dot.o
 0001:00006a60       _xdot_str                  63987a60 f   libgvplugin_core:gvrender_core_dot.o
 0001:00006b60       _xdot_pencolor             63987b60 f   libgvplugin_core:gvrender_core_dot.o
 0001:00006b80       _xdot_ellipse              63987b80 f   libgvplugin_core:gvrender_core_dot.o
 0001:00006d20       _xdot_fillcolor            63987d20 f   libgvplugin_core:gvrender_core_dot.o
 0001:00006d40       _xdot_style                63987d40 f   libgvplugin_core:gvrender_core_dot.o
 0001:00006f40       _xdot_bezier               63987f40 f   libgvplugin_core:gvrender_core_dot.o
 0001:00006fa0       _xdot_points               63987fa0 f   libgvplugin_core:gvrender_core_dot.o
 0001:000070d0       _xdot_polygon              639880d0 f   libgvplugin_core:gvrender_core_dot.o
 0001:00007130       _xdot_polyline             63988130 f   libgvplugin_core:gvrender_core_dot.o
 0001:00007382       _pre_c_init                63988382 f   msvcrt:crtdll.obj
 0001:0000756e       ___DllMainCRTStartup       6398856e f   msvcrt:crtdll.obj
 0001:00007aa8       _has_osfxsr_set            63988aa8 f   msvcrt:cpu_disp.obj
